; Function Attrs: mustprogress nounwind uwtable
define internal void @_ZNK9grpc_core11json_detail10AutoLoaderISt8optionalINS_12_GLOBAL__N_110RbacConfig10RbacPolicy5Rules6Policy11StringMatchEEE5ResetEPv(ptr nonnull readnone align 8 captures(none) %0, ptr noundef %1) unnamed_addr #6 align 2 personality ptr @__gxx_personality_v0 {
  %3 = getelementptr inbounds nuw i8, ptr %1, i64 56
  %4 = load i8, ptr %3, align 8, !tbaa !304, !range !32, !noundef !33
  %5 = trunc nuw i8 %4 to i1
  br i1 %5, label %6, label %_ZNSt8optionalIN9grpc_core12_GLOBAL__N_110RbacConfig10RbacPolicy5Rules6Policy11StringMatchEE5resetEv.exit

6:                                                ; preds = %2
  store i8 0, ptr %3, align 8, !tbaa !304
  %7 = getelementptr inbounds nuw i8, ptr %1, i64 40
  %8 = load ptr, ptr %7, align 8, !tbaa !213
  %.not.i.i.i.i.i.i.i = icmp eq ptr %8, null
  br i1 %.not.i.i.i.i.i.i.i, label %_ZNSt10unique_ptrIN3re23RE2ESt14default_deleteIS1_EED2Ev.exit.i.i.i.i.i.i, label %_ZNKSt14default_deleteIN3re23RE2EEclEPS1_.exit.i.i.i.i.i.i.i

_ZNKSt14default_deleteIN3re23RE2EEclEPS1_.exit.i.i.i.i.i.i.i: ; preds = %6
  tail call void @_ZN3re23RE2D1Ev(ptr noundef nonnull align 8 dereferenceable(212) %8) #26
  tail call void @_ZdlPvm(ptr noundef nonnull %8, i64 noundef 216) #30
  br label %_ZNSt10unique_ptrIN3re23RE2ESt14default_deleteIS1_EED2Ev.exit.i.i.i.i.i.i

_ZNSt10unique_ptrIN3re23RE2ESt14default_deleteIS1_EED2Ev.exit.i.i.i.i.i.i: ; preds = %_ZNKSt14default_deleteIN3re23RE2EEclEPS1_.exit.i.i.i.i.i.i.i, %6
  store ptr null, ptr %7, align 8, !tbaa !213
  %9 = getelementptr inbounds nuw i8, ptr %1, i64 8
  %10 = load ptr, ptr %9, align 8, !tbaa !50
  %11 = getelementptr inbounds nuw i8, ptr %1, i64 24
  %12 = icmp eq ptr %10, %11
  br i1 %12, label %_ZNKSt7__cxx1112basic_stringIcSt11char_traitsIcESaIcEE11_M_is_localEv.exit.thread.i.i.i.i.i.i.i.i, label %_ZNKSt7__cxx1112basic_stringIcSt11char_traitsIcESaIcEE11_M_is_localEv.exit.i.i.i.i.i.i.i.i

_ZNKSt7__cxx1112basic_stringIcSt11char_traitsIcESaIcEE11_M_is_localEv.exit.thread.i.i.i.i.i.i.i.i: ; preds = %_ZNSt10unique_ptrIN3re23RE2ESt14default_deleteIS1_EED2Ev.exit.i.i.i.i.i.i
  %13 = getelementptr inbounds nuw i8, ptr %1, i64 16
  %14 = load i64, ptr %13, align 8, !tbaa !38
  %15 = icmp ult i64 %14, 16
  tail call void @llvm.assume(i1 %15)
  br label %_ZNSt8optionalIN9grpc_core12_GLOBAL__N_110RbacConfig10RbacPolicy5Rules6Policy11StringMatchEE5resetEv.exit

_ZNKSt7__cxx1112basic_stringIcSt11char_traitsIcESaIcEE11_M_is_localEv.exit.i.i.i.i.i.i.i.i: ; preds = %_ZNSt10unique_ptrIN3re23RE2ESt14default_deleteIS1_EED2Ev.exit.i.i.i.i.i.i
  %16 = load i64, ptr %11, align 8, !tbaa !41
  %17 = add i64 %16, 1
  tail call void @_ZdlPvm(ptr noundef %10, i64 noundef %17) #30
  br label %_ZNSt8optionalIN9grpc_core12_GLOBAL__N_110RbacConfig10RbacPolicy5Rules6Policy11StringMatchEE5resetEv.exit

_ZNSt8optionalIN9grpc_core12_GLOBAL__N_110RbacConfig10RbacPolicy5Rules6Policy11StringMatchEE5resetEv.exit: ; preds = %2, %_ZNKSt7__cxx1112basic_stringIcSt11char_traitsIcESaIcEE11_M_is_localEv.exit.thread.i.i.i.i.i.i.i.i, %_ZNKSt7__cxx1112basic_stringIcSt11char_traitsIcESaIcEE11_M_is_localEv.exit.i.i.i.i.i.i.i.i
  ret void
}